
ifthenOld2:     file format elf32-i386


Disassembly of section .plt:

080481b0 <printf@plt-0x10>:
 80481b0:	ff 35 f4 92 04 08    	pushl  0x80492f4
 80481b6:	ff 25 f8 92 04 08    	jmp    *0x80492f8
 80481bc:	00 00                	add    %al,(%eax)
	...

080481c0 <printf@plt>:
 80481c0:	ff 25 fc 92 04 08    	jmp    *0x80492fc
 80481c6:	68 00 00 00 00       	push   $0x0
 80481cb:	e9 e0 ff ff ff       	jmp    80481b0 <printf@plt-0x10>

080481d0 <exit@plt>:
 80481d0:	ff 25 00 93 04 08    	jmp    *0x8049300
 80481d6:	68 08 00 00 00       	push   $0x8
 80481db:	e9 d0 ff ff ff       	jmp    80481b0 <printf@plt-0x10>

Disassembly of section .text:

080481e0 <main>:
 80481e0:	55                   	push   %ebp
 80481e1:	89 e5                	mov    %esp,%ebp
 80481e3:	83 ec 18             	sub    $0x18,%esp
 80481e6:	83 c4 f0             	add    $0xfffffff0,%esp
 80481e9:	b8 00 00 00 00       	mov    $0x0,%eax
 80481ee:	29 c4                	sub    %eax,%esp
 80481f0:	c7 45 fc 64 00 00 00 	movl   $0x64,-0x4(%ebp)
 80481f7:	c7 45 f8 19 00 00 00 	movl   $0x19,-0x8(%ebp)
 80481fe:	8b 45 fc             	mov    -0x4(%ebp),%eax
 8048201:	3b 45 f8             	cmp    -0x8(%ebp),%eax
 8048204:	7e 15                	jle    804821b <main+0x3b>
 8048206:	8b 45 fc             	mov    -0x4(%ebp),%eax
 8048209:	89 44 24 04          	mov    %eax,0x4(%esp)
 804820d:	c7 04 24 36 82 04 08 	movl   $0x8048236,(%esp)
 8048214:	e8 a7 ff ff ff       	call   80481c0 <printf@plt>
 8048219:	eb 13                	jmp    804822e <main+0x4e>
 804821b:	8b 45 f8             	mov    -0x8(%ebp),%eax
 804821e:	89 44 24 04          	mov    %eax,0x4(%esp)
 8048222:	c7 04 24 36 82 04 08 	movl   $0x8048236,(%esp)
 8048229:	e8 92 ff ff ff       	call   80481c0 <printf@plt>
 804822e:	89 04 24             	mov    %eax,(%esp)
 8048231:	e8 9a ff ff ff       	call   80481d0 <exit@plt>
